(dp0
S'METTS MARK'
p1
(dp2
S'to_poi_percentage'
p3
F0.04708798017348203
sS'to_messages'
p4
I807
sS'deferral_payments'
p5
S'NaN'
p6
sS'expenses'
p7
I94299
sS'poi'
p8
I00
sS'deferred_income'
p9
g6
sS'from_poi_percentage'
p10
F0.034482758620689655
sS'email_address'
p11
S'mark.metts@enron.com'
p12
sS'long_term_incentive'
p13
g6
sS'restricted_stock_deferred'
p14
g6
sS'shared_receipt_with_poi'
p15
I702
sS'loan_advances'
p16
g6
sS'from_messages'
p17
I29
sS'other'
p18
I1740
sS'director_fees'
p19
g6
sS'bonus'
p20
I600000
sS'total_stock_value'
p21
I585062
sS'from_poi_to_this_person'
p22
I38
sS'from_this_person_to_poi'
p23
I1
sS'restricted_stock'
p24
I585062
sS'salary'
p25
I365788
sS'total_payments'
p26
I1061827
sS'exercised_stock_options'
p27
g6
ssS'BAXTER JOHN C'
p28
(dp29
g3
F0.0
sg4
g6
sg5
I1295738
sg7
I11200
sg8
I00
sg9
I-1386055
sg10
F0.0
sg11
g6
sg13
I1586055
sg14
g6
sg15
g6
sg16
g6
sg17
g6
sg18
I2660303
sg19
g6
sg20
I1200000
sg21
I10623258
sg22
g6
sg23
g6
sg24
I3942714
sg25
I267102
sg26
I5634343
sg27
I6680544
ssS'ELLIOTT STEVEN'
p30
(dp31
g3
F0.0
sg4
g6
sg5
g6
sg7
I78552
sg8
I00
sg9
I-400729
sg10
F0.0
sg11
S'steven.elliott@enron.com'
p32
sg13
g6
sg14
g6
sg15
g6
sg16
g6
sg17
g6
sg18
I12961
sg19
g6
sg20
I350000
sg21
I6678735
sg22
g6
sg23
g6
sg24
I1788391
sg25
I170941
sg26
I211725
sg27
I4890344
ssS'HANNON KEVIN P'
p33
(dp34
g3
F0.03062200956937799
sg4
I1045
sg5
g6
sg7
I34039
sg8
I01
sg9
I-3117011
sg10
F0.65625
sg11
S'kevin.hannon@enron.com'
p35
sg13
I1617011
sg14
g6
sg15
I1035
sg16
g6
sg17
I32
sg18
I11350
sg19
g6
sg20
I1500000
sg21
I6391065
sg22
I32
sg23
I21
sg24
I853064
sg25
I243293
sg26
I288682
sg27
I5538001
ssS'MORDAUNT KRISTINA M'
p36
(dp37
g3
F0.0
sg4
g6
sg5
g6
sg7
I35018
sg8
I00
sg9
g6
sg10
F0.0
sg11
S'kristina.mordaunt@enron.com'
p38
sg13
g6
sg14
g6
sg15
g6
sg16
g6
sg17
g6
sg18
I1411
sg19
g6
sg20
I325000
sg21
I208510
sg22
g6
sg23
g6
sg24
I208510
sg25
I267093
sg26
I628522
sg27
g6
ssS'MCMAHON JEFFREY'
p39
(dp40
g3
F0.024628450106157114
sg4
I2355
sg5
g6
sg7
I137108
sg8
I00
sg9
g6
sg10
F0.5416666666666666
sg11
S'jeffrey.mcmahon@enron.com'
p41
sg13
I694862
sg14
g6
sg15
I2228
sg16
g6
sg17
I48
sg18
I297353
sg19
g6
sg20
I2600000
sg21
I1662855
sg22
I58
sg23
I26
sg24
I558801
sg25
I370448
sg26
I4099771
sg27
I1104054
ssS'PIPER GREGORY F'
p42
(dp43
g3
F0.049273021001615507
sg4
I1238
sg5
I1130036
sg7
I43057
sg8
I00
sg9
I-33333
sg10
F0.21621621621621623
sg11
S'greg.piper@enron.com'
p44
sg13
g6
sg14
I-409554
sg15
I742
sg16
g6
sg17
I222
sg18
I778
sg19
g6
sg20
I400000
sg21
I880290
sg22
I61
sg23
I48
sg24
I409554
sg25
I197091
sg26
I1737629
sg27
I880290
ssS'HUMPHREY GENE E'
p45
(dp46
g3
F0.078125
sg4
I128
sg5
I2964506
sg7
I4994
sg8
I00
sg9
g6
sg10
F1.0
sg11
S'gene.humphrey@enron.com'
p47
sg13
g6
sg14
g6
sg15
I119
sg16
g6
sg17
I17
sg18
g6
sg19
g6
sg20
g6
sg21
I2282768
sg22
I10
sg23
I17
sg24
g6
sg25
I130724
sg26
I3100224
sg27
I2282768
ssS'BLACHMAN JEREMY M'
p48
(dp49
g3
F0.010101010101010102
sg4
I2475
sg5
g6
sg7
I84208
sg8
I00
sg9
g6
sg10
F0.14285714285714285
sg11
S'jeremy.blachman@enron.com'
p50
sg13
I831809
sg14
g6
sg15
I2326
sg16
g6
sg17
I14
sg18
I272
sg19
g6
sg20
I850000
sg21
I954354
sg22
I25
sg23
I2
sg24
I189041
sg25
I248546
sg26
I2014835
sg27
I765313
ssS'SUNDE MARTIN'
p51
(dp52
g3
F0.013978088401964487
sg4
I2647
sg5
g6
sg7
g6
sg8
I00
sg9
g6
sg10
F0.34210526315789475
sg11
S'marty.sunde@enron.com'
p53
sg13
I476451
sg14
g6
sg15
I2565
sg16
g6
sg17
I38
sg18
I111122
sg19
g6
sg20
I700000
sg21
I698920
sg22
I37
sg23
I13
sg24
I698920
sg25
I257486
sg26
I1545059
sg27
g6
ssS'COLWELL WESLEY'
p54
(dp55
g3
F0.13651877133105803
sg4
I1758
sg5
I27610
sg7
I16514
sg8
I01
sg9
I-144062
sg10
F0.275
sg11
S'wes.colwell@enron.com'
p56
sg13
g6
sg14
g6
sg15
I1132
sg16
g6
sg17
I40
sg18
I101740
sg19
g6
sg20
I1200000
sg21
I698242
sg22
I240
sg23
I11
sg24
I698242
sg25
I288542
sg26
I1490344
sg27
g6
ssS'MULLER MARK S'
p57
(dp58
g3
F0.08823529411764706
sg4
I136
sg5
I842924
sg7
g6
sg8
I00
sg9
I-719000
sg10
F0.0
sg11
S's..muller@enron.com'
p59
sg13
I1725545
sg14
g6
sg15
I114
sg16
g6
sg17
I16
sg18
I947
sg19
g6
sg20
I1100000
sg21
I1416848
sg22
I12
sg23
I0
sg24
I360528
sg25
I251654
sg26
I3202070
sg27
I1056320
ssS'JACKSON CHARLENE R'
p60
(dp61
g3
F0.09689922480620156
sg4
I258
sg5
g6
sg7
I10181
sg8
I00
sg9
g6
sg10
F0.3392857142857143
sg11
S'charlene.jackson@enron.com'
p62
sg13
g6
sg14
g6
sg15
I117
sg16
g6
sg17
I56
sg18
I2435
sg19
g6
sg20
I250000
sg21
I725735
sg22
I25
sg23
I19
sg24
I540672
sg25
I288558
sg26
I551174
sg27
I185063
ssS'WESTFAHL RICHARD K'
p63
(dp64
g3
F0.0
sg4
g6
sg5
g6
sg7
I51870
sg8
I00
sg9
I-10800
sg10
F0.0
sg11
S'dick.westfahl@enron.com'
p65
sg13
I256191
sg14
g6
sg15
g6
sg16
g6
sg17
g6
sg18
I401130
sg19
g6
sg20
g6
sg21
I384930
sg22
g6
sg23
g6
sg24
I384930
sg25
I63744
sg26
I762135
sg27
g6
ssS'WALLS JR ROBERT H'
p66
(dp67
g3
F0.02533532041728763
sg4
I671
sg5
g6
sg7
I50936
sg8
I00
sg9
g6
sg10
F0.0
sg11
S'rob.walls@enron.com'
p68
sg13
I540751
sg14
g6
sg15
I215
sg16
g6
sg17
I146
sg18
I2
sg19
g6
sg20
I850000
sg21
I5898997
sg22
I17
sg23
I0
sg24
I1552453
sg25
I357091
sg26
I1798780
sg27
I4346544
ssS'KITCHEN LOUISE'
p69
(dp70
g3
F0.030222757375075255
sg4
I8305
sg5
g6
sg7
I5774
sg8
I00
sg9
g6
sg10
F0.11226851851851852
sg11
S'louise.kitchen@enron.com'
p71
sg13
g6
sg14
g6
sg15
I3669
sg16
g6
sg17
I1728
sg18
I93925
sg19
g6
sg20
I3100000
sg21
I547143
sg22
I251
sg23
I194
sg24
I466101
sg25
I271442
sg26
I3471141
sg27
I81042
ssS'SHANKMAN JEFFREY A'
p72
(dp73
g3
F0.029183483390251473
sg4
I3221
sg5
g6
sg7
I178979
sg8
I00
sg9
g6
sg10
F0.030958597538232
sg11
S'jeffrey.shankman@enron.com'
p74
sg13
I554422
sg14
g6
sg15
I1730
sg16
g6
sg17
I2681
sg18
I1191
sg19
g6
sg20
I2000000
sg21
I2072035
sg22
I94
sg23
I83
sg24
I630137
sg25
I304110
sg26
I3038702
sg27
I1441898
ssS'BERGSIEKER RICHARD P'
p75
(dp76
g3
F0.010443864229765013
sg4
I383
sg5
g6
sg7
I59175
sg8
I00
sg9
I-485813
sg10
F0.0
sg11
S'rick.bergsieker@enron.com'
p77
sg13
I180250
sg14
g6
sg15
I233
sg16
g6
sg17
I59
sg18
I427316
sg19
g6
sg20
I250000
sg21
I659249
sg22
I4
sg23
I0
sg24
I659249
sg25
I187922
sg26
I618850
sg27
g6
ssS'BIBI PHILIPPE A'
p78
(dp79
g3
F0.01431238332296204
sg4
I1607
sg5
g6
sg7
I38559
sg8
I00
sg9
g6
sg10
F0.2
sg11
S'philippe.bibi@enron.com'
p80
sg13
I369721
sg14
g6
sg15
I1336
sg16
g6
sg17
I40
sg18
I425688
sg19
g6
sg20
I1000000
sg21
I1843816
sg22
I23
sg23
I8
sg24
I378082
sg25
I213625
sg26
I2047593
sg27
I1465734
ssS'RIEKER PAULA H'
p81
(dp82
g3
F0.02635542168674699
sg4
I1328
sg5
I214678
sg7
I33271
sg8
I01
sg9
I-100000
sg10
F0.5853658536585366
sg11
S'paula.rieker@enron.com'
p83
sg13
g6
sg14
g6
sg15
I1258
sg16
g6
sg17
I82
sg18
I1950
sg19
g6
sg20
I700000
sg21
I1918887
sg22
I35
sg23
I48
sg24
I283649
sg25
I249201
sg26
I1099100
sg27
I1635238
ssS'BECK SALLY W'
p84
(dp85
g3
F0.01968557758031442
sg4
I7315
sg5
g6
sg7
I37172
sg8
I00
sg9
g6
sg10
F0.08887865530739121
sg11
S'sally.beck@enron.com'
p86
sg13
g6
sg14
g6
sg15
I2639
sg16
g6
sg17
I4343
sg18
I566
sg19
g6
sg20
I700000
sg21
I126027
sg22
I144
sg23
I386
sg24
I126027
sg25
I231330
sg26
I969068
sg27
g6
ssS'ECHOLS JOHN B'
p87
(dp88
g3
F0.0
sg4
g6
sg5
g6
sg7
I21530
sg8
I00
sg9
g6
sg10
F0.0
sg11
S'john.echols@enron.com'
p89
sg13
I2234774
sg14
g6
sg15
g6
sg16
g6
sg17
g6
sg18
I53775
sg19
g6
sg20
I200000
sg21
I1008941
sg22
g6
sg23
g6
sg24
I407503
sg25
I182245
sg26
I2692324
sg27
I601438
ssS'HICKERSON GARY J'
p90
(dp91
g3
F0.030303030303030304
sg4
I1320
sg5
g6
sg7
I98849
sg8
I00
sg9
g6
sg10
F0.037037037037037035
sg11
S'gary.hickerson@enron.com'
p92
sg13
I69223
sg14
g6
sg15
I900
sg16
g6
sg17
I27
sg18
I1936
sg19
g6
sg20
I1700000
sg21
I441096
sg22
I40
sg23
I1
sg24
I441096
sg25
I211788
sg26
I2081796
sg27
g6
ssS'RICE KENNETH D'
p93
(dp94
g3
F0.04640883977900553
sg4
I905
sg5
g6
sg7
I46950
sg8
I01
sg9
I-3504386
sg10
F0.2222222222222222
sg11
S'ken.rice@enron.com'
p95
sg13
I1617011
sg14
g6
sg15
I864
sg16
g6
sg17
I18
sg18
I174839
sg19
g6
sg20
I1750000
sg21
I22542539
sg22
I42
sg23
I4
sg24
I2748364
sg25
I420636
sg26
I505050
sg27
I19794175
ssS'KOPPER MICHAEL J'
p96
(dp97
g3
F0.0
sg4
g6
sg5
g6
sg7
I118134
sg8
I01
sg9
g6
sg10
F0.0
sg11
S'michael.kopper@enron.com'
p98
sg13
I602671
sg14
g6
sg15
g6
sg16
g6
sg17
g6
sg18
I907502
sg19
g6
sg20
I800000
sg21
I985032
sg22
g6
sg23
g6
sg24
I985032
sg25
I224305
sg26
I2652612
sg27
g6
ssS'LEFF DANIEL P'
p99
(dp100
g3
F0.02374202693125443
sg4
I2822
sg5
g6
sg7
g6
sg8
I00
sg9
g6
sg10
F0.2222222222222222
sg11
S'dan.leff@enron.com'
p101
sg13
I1387399
sg14
g6
sg15
I2672
sg16
g6
sg17
I63
sg18
I3083
sg19
g6
sg20
I1000000
sg21
I360528
sg22
I67
sg23
I14
sg24
I360528
sg25
I273746
sg26
I2664228
sg27
g6
ssS'LAVORATO JOHN J'
p102
(dp103
g3
F0.07273729163796666
sg4
I7259
sg5
g6
sg7
I49537
sg8
I00
sg9
g6
sg10
F0.15899419729206962
sg11
S'john.lavorato@enron.com'
p104
sg13
I2035380
sg14
g6
sg15
I3962
sg16
g6
sg17
I2585
sg18
I1552
sg19
g6
sg20
I8000000
sg21
I5167144
sg22
I528
sg23
I411
sg24
I1008149
sg25
I339288
sg26
I10425757
sg27
I4158995
ssS'BERBERIAN DAVID'
p105
(dp106
g3
F0.0
sg4
g6
sg5
g6
sg7
I11892
sg8
I00
sg9
g6
sg10
F0.0
sg11
S'david.berberian@enron.com'
p107
sg13
g6
sg14
g6
sg15
g6
sg16
g6
sg17
g6
sg18
g6
sg19
g6
sg20
g6
sg21
I2493616
sg22
g6
sg23
g6
sg24
I869220
sg25
I216582
sg26
I228474
sg27
I1624396
ssS'DETMERING TIMOTHY J'
p108
(dp109
g3
F0.0
sg4
g6
sg5
I875307
sg7
I52255
sg8
I00
sg9
I-775241
sg10
F0.0
sg11
S'timothy.detmering@enron.com'
p110
sg13
I415657
sg14
I-315068
sg15
g6
sg16
g6
sg17
g6
sg18
I1105
sg19
g6
sg20
I425000
sg21
I2027865
sg22
g6
sg23
g6
sg24
I315068
sg25
I210500
sg26
I1204583
sg27
I2027865
ssS'GOLD JOSEPH'
p111
(dp112
g3
F0.0
sg4
g6
sg5
g6
sg7
g6
sg8
I00
sg9
g6
sg10
F0.0
sg11
S'joe.gold@enron.com'
p113
sg13
I304805
sg14
g6
sg15
g6
sg16
g6
sg17
g6
sg18
I819288
sg19
g6
sg20
I750000
sg21
I877611
sg22
g6
sg23
g6
sg24
I441096
sg25
I272880
sg26
I2146973
sg27
I436515
ssS'BANNANTINE JAMES M'
p114
(dp115
g3
F0.06890459363957598
sg4
I566
sg5
g6
sg7
I56301
sg8
I00
sg9
I-5104
sg10
F0.0
sg11
S'james.bannantine@enron.com'
p116
sg13
g6
sg14
I-560222
sg15
I465
sg16
g6
sg17
I29
sg18
I864523
sg19
g6
sg20
g6
sg21
I5243487
sg22
I39
sg23
I0
sg24
I1757552
sg25
I477
sg26
I916197
sg27
I4046157
ssS'SHAPIRO RICHARD S'
p117
(dp118
g3
F0.0048848108786058485
sg4
I15149
sg5
g6
sg7
I137767
sg8
I00
sg9
g6
sg10
F0.053497942386831275
sg11
S'richard.shapiro@enron.com'
p119
sg13
g6
sg14
g6
sg15
I4527
sg16
g6
sg17
I1215
sg18
I705
sg19
g6
sg20
I650000
sg21
I987001
sg22
I74
sg23
I65
sg24
I379164
sg25
I269076
sg26
I1057548
sg27
I607837
ssS'SHERRIFF JOHN R'
p120
(dp121
g3
F0.008785691873235017
sg4
I3187
sg5
g6
sg7
g6
sg8
I00
sg9
g6
sg10
F0.25
sg11
S'john.sherriff@enron.com'
p122
sg13
I554422
sg14
g6
sg15
I2103
sg16
g6
sg17
I92
sg18
I1852186
sg19
g6
sg20
I1500000
sg21
I3128982
sg22
I28
sg23
I23
sg24
I1293424
sg25
I428780
sg26
I4335388
sg27
I1835558
ssS'SHELBY REX'
p123
(dp124
g3
F0.057777777777777775
sg4
I225
sg5
g6
sg7
I22884
sg8
I01
sg9
I-4167
sg10
F0.358974358974359
sg11
S'rex.shelby@enron.com'
p125
sg13
g6
sg14
g6
sg15
I91
sg16
g6
sg17
I39
sg18
I1573324
sg19
g6
sg20
I200000
sg21
I2493616
sg22
I13
sg23
I14
sg24
I869220
sg25
I211844
sg26
I2003885
sg27
I1624396
ssS'DEFFNER JOSEPH M'
p126
(dp127
g3
F0.16106442577030813
sg4
I714
sg5
g6
sg7
I41626
sg8
I00
sg9
g6
sg10
F0.05405405405405406
sg11
S'joseph.deffner@enron.com'
p128
sg13
I335349
sg14
g6
sg15
I552
sg16
g6
sg17
I74
sg18
I25553
sg19
g6
sg20
I600000
sg21
I159211
sg22
I115
sg23
I4
sg24
I141833
sg25
I206121
sg26
I1208649
sg27
I17378
ssS'KISHKILL JOSEPH G'
p129
(dp130
g3
F0.0
sg4
g6
sg5
g6
sg7
I116335
sg8
I00
sg9
I-51042
sg10
F0.0
sg11
S'joe.kishkill@enron.com'
p131
sg13
g6
sg14
g6
sg15
g6
sg16
g6
sg17
g6
sg18
I465357
sg19
g6
sg20
g6
sg21
I1034346
sg22
g6
sg23
g6
sg24
I1034346
sg25
I174246
sg26
I704896
sg27
g6
ssS'WHALLEY LAWRENCE G'
p132
(dp133
g3
F0.03090214321315833
sg4
I6019
sg5
g6
sg7
I57838
sg8
I00
sg9
g6
sg10
F0.04316546762589928
sg11
S'greg.whalley@enron.com'
p134
sg13
I808346
sg14
g6
sg15
I3920
sg16
g6
sg17
I556
sg18
I301026
sg19
g6
sg20
I3000000
sg21
I6079137
sg22
I186
sg23
I24
sg24
I2796177
sg25
I510364
sg26
I4677574
sg27
I3282960
ssS'MCCONNELL MICHAEL S'
p135
(dp136
g3
F0.02763592670471613
sg4
I3329
sg5
g6
sg7
I81364
sg8
I00
sg9
g6
sg10
F0.07075127644055434
sg11
S'mike.mcconnell@enron.com'
p137
sg13
I554422
sg14
g6
sg15
I2189
sg16
g6
sg17
I2742
sg18
I540
sg19
g6
sg20
I1100000
sg21
I3101279
sg22
I92
sg23
I194
sg24
I1478269
sg25
I365038
sg26
I2101364
sg27
I1623010
ssS'DELAINEY DAVID W'
p138
(dp139
g3
F0.02133850630455868
sg4
I3093
sg5
g6
sg7
I86174
sg8
I01
sg9
g6
sg10
F0.198435972629521
sg11
S'david.delainey@enron.com'
p140
sg13
I1294981
sg14
g6
sg15
I2097
sg16
g6
sg17
I3069
sg18
I1661
sg19
g6
sg20
I3000000
sg21
I3614261
sg22
I66
sg23
I609
sg24
I1323148
sg25
I365163
sg26
I4747979
sg27
I2291113
ssS'SULLIVAN-SHAKLOVITZ COLLEEN'
p141
(dp142
g3
F0.0
sg4
g6
sg5
I181993
sg7
g6
sg8
I00
sg9
g6
sg10
F0.0
sg11
g6
sg13
I554422
sg14
g6
sg15
g6
sg16
g6
sg17
g6
sg18
I162
sg19
g6
sg20
I100000
sg21
I1362375
sg22
g6
sg23
g6
sg24
g6
sg25
I162779
sg26
I999356
sg27
I1362375
ssS'LINDHOLM TOD A'
p143
(dp144
g3
F0.0
sg4
g6
sg5
I204075
sg7
I57727
sg8
I00
sg9
g6
sg10
F0.0
sg11
S'tod.lindholm@enron.com'
p145
sg13
I175000
sg14
g6
sg15
g6
sg16
g6
sg17
g6
sg18
I2630
sg19
g6
sg20
I200000
sg21
I3064208
sg22
g6
sg23
g6
sg24
I514847
sg25
I236457
sg26
I875889
sg27
I2549361
ssS'LAY KENNETH L'
p146
(dp147
g3
F0.028785396676807865
sg4
I4273
sg5
I202911
sg7
I99832
sg8
I01
sg9
I-300000
sg10
F0.4444444444444444
sg11
S'kenneth.lay@enron.com'
p148
sg13
I3600000
sg14
g6
sg15
I2411
sg16
I81525000
sg17
I36
sg18
I10359729
sg19
g6
sg20
I7000000
sg21
I49110078
sg22
I123
sg23
I16
sg24
I14761694
sg25
I1072321
sg26
I103559793
sg27
I34348384
ssS'BUTTS ROBERT H'
p149
(dp150
g3
F0.0
sg4
g6
sg5
g6
sg7
I9410
sg8
I00
sg9
I-75000
sg10
F0.0
sg11
S'bob.butts@enron.com'
p151
sg13
I175000
sg14
g6
sg15
g6
sg16
g6
sg17
g6
sg18
I150656
sg19
g6
sg20
I750000
sg21
I417619
sg22
g6
sg23
g6
sg24
I417619
sg25
I261516
sg26
I1271582
sg27
g6
ssS'OLSON CINDY K'
p152
(dp153
g3
F0.016891891891891893
sg4
I1184
sg5
I77716
sg7
I63791
sg8
I00
sg9
g6
sg10
F0.28846153846153844
sg11
S'cindy.olson@enron.com'
p154
sg13
I100000
sg14
g6
sg15
I856
sg16
g6
sg17
I52
sg18
I972
sg19
g6
sg20
I750000
sg21
I2606763
sg22
I20
sg23
I15
sg24
I969729
sg25
I329078
sg26
I1321557
sg27
I1637034
ssS'PICKERING MARK R'
p155
(dp156
g3
F0.0077951002227171495
sg4
I898
sg5
g6
sg7
I31653
sg8
I00
sg9
g6
sg10
F0.0
sg11
S'mark.pickering@enron.com'
p157
sg13
g6
sg14
g6
sg15
I728
sg16
I400000
sg17
I67
sg18
g6
sg19
g6
sg20
I300000
sg21
I28798
sg22
I7
sg23
I0
sg24
g6
sg25
I655037
sg26
I1386690
sg27
I28798
ssS'CUMBERLAND MICHAEL S'
p158
(dp159
g3
F0.0
sg4
g6
sg5
g6
sg7
I22344
sg8
I00
sg9
g6
sg10
F0.0
sg11
g6
sg13
I275000
sg14
g6
sg15
g6
sg16
g6
sg17
g6
sg18
I713
sg19
g6
sg20
I325000
sg21
I207940
sg22
g6
sg23
g6
sg24
I207940
sg25
I184899
sg26
I807956
sg27
g6
ssS'GAHN ROBERT S'
p160
(dp161
g3
F0.0
sg4
g6
sg5
I73122
sg7
I50080
sg8
I00
sg9
I-1042
sg10
F0.0
sg11
g6
sg13
g6
sg14
g6
sg15
g6
sg16
g6
sg17
g6
sg18
I76547
sg19
g6
sg20
I509870
sg21
I318607
sg22
g6
sg23
g6
sg24
I235370
sg25
I192008
sg26
I900585
sg27
I83237
ssS'HERMANN ROBERT J'
p162
(dp163
g3
F0.0
sg4
g6
sg5
g6
sg7
I48357
sg8
I00
sg9
I-280000
sg10
F0.0
sg11
S'robert.hermann@enron.com'
p164
sg13
I150000
sg14
g6
sg15
g6
sg16
g6
sg17
g6
sg18
I416441
sg19
g6
sg20
I700000
sg21
I668132
sg22
g6
sg23
g6
sg24
I480632
sg25
I262663
sg26
I1297461
sg27
I187500
ssS'HAEDICKE MARK E'
p165
(dp166
g3
F0.04489897730107259
sg4
I4009
sg5
I2157527
sg7
I76169
sg8
I00
sg9
I-934484
sg10
F0.03142709943328181
sg11
S'mark.haedicke@enron.com'
p167
sg13
I983346
sg14
I-329825
sg15
I1847
sg16
g6
sg17
I1941
sg18
I52382
sg19
g6
sg20
I1150000
sg21
I803094
sg22
I180
sg23
I61
sg24
I524169
sg25
I374125
sg26
I3859065
sg27
I608750
ssS'BOWEN JR RAYMOND M'
p168
(dp169
g3
F0.07534983853606028
sg4
I1858
sg5
g6
sg7
I65907
sg8
I01
sg9
I-833
sg10
F0.5555555555555556
sg11
S'raymond.bowen@enron.com'
p170
sg13
I974293
sg14
g6
sg15
I1593
sg16
g6
sg17
I27
sg18
I1621
sg19
g6
sg20
I1350000
sg21
I252055
sg22
I140
sg23
I15
sg24
I252055
sg25
I278601
sg26
I2669589
sg27
g6
ssS'FITZGERALD JAY L'
p171
(dp172
g3
F0.0010683760683760685
sg4
I936
sg5
g6
sg7
I23870
sg8
I00
sg9
g6
sg10
F0.5
sg11
S'jay.fitzgerald@enron.com'
p173
sg13
I556416
sg14
g6
sg15
I723
sg16
g6
sg17
I16
sg18
I285414
sg19
g6
sg20
I350000
sg21
I1621236
sg22
I1
sg23
I8
sg24
I956775
sg25
I199157
sg26
I1414857
sg27
I664461
ssS'REDMOND BRIAN L'
p174
(dp175
g3
F0.12208258527827648
sg4
I1671
sg5
g6
sg7
I14689
sg8
I00
sg9
g6
sg10
F0.22171945701357465
sg11
S'brian.redmond@enron.com'
p176
sg13
g6
sg14
g6
sg15
I1063
sg16
g6
sg17
I221
sg18
g6
sg19
g6
sg20
g6
sg21
I7890324
sg22
I204
sg23
I49
sg24
I381285
sg25
I96840
sg26
I111529
sg27
I7509039
ssS'BAZELIDES PHILIP J'
p177
(dp178
g3
F0.0
sg4
g6
sg5
I684694
sg7
g6
sg8
I00
sg9
g6
sg10
F0.0
sg11
g6
sg13
I93750
sg14
g6
sg15
g6
sg16
g6
sg17
g6
sg18
I874
sg19
g6
sg20
g6
sg21
I1599641
sg22
g6
sg23
g6
sg24
g6
sg25
I80818
sg26
I860136
sg27
I1599641
ssS'BELDEN TIMOTHY N'
p179
(dp180
g3
F0.028532098610937303
sg4
I7991
sg5
I2144013
sg7
I17355
sg8
I01
sg9
I-2334434
sg10
F0.2231404958677686
sg11
S'tim.belden@enron.com'
p181
sg13
g6
sg14
g6
sg15
I5521
sg16
g6
sg17
I484
sg18
I210698
sg19
g6
sg20
I5249999
sg21
I1110705
sg22
I228
sg23
I108
sg24
I157569
sg25
I213999
sg26
I5501630
sg27
I953136
ssS'DURAN WILLIAM D'
p182
(dp183
g3
F0.1172566371681416
sg4
I904
sg5
g6
sg7
I25785
sg8
I00
sg9
g6
sg10
F0.25
sg11
S'w.duran@enron.com'
p184
sg13
I1105218
sg14
g6
sg15
I599
sg16
g6
sg17
I12
sg18
I1568
sg19
g6
sg20
I750000
sg21
I1640910
sg22
I106
sg23
I3
sg24
I189041
sg25
I210692
sg26
I2093263
sg27
I1451869
ssS'THORN TERENCE H'
p185
(dp186
g3
F0.0
sg4
I266
sg5
I16586
sg7
I46145
sg8
I00
sg9
g6
sg10
F0.0
sg11
S'terence.thorn@enron.com'
p187
sg13
I200000
sg14
g6
sg15
I73
sg16
g6
sg17
I41
sg18
I426629
sg19
g6
sg20
g6
sg21
I4817796
sg22
I0
sg23
I0
sg24
I365320
sg25
I222093
sg26
I911453
sg27
I4452476
ssS'FASTOW ANDREW S'
p188
(dp189
g3
F0.0
sg4
g6
sg5
g6
sg7
I55921
sg8
I01
sg9
I-1386055
sg10
F0.0
sg11
S'andrew.fastow@enron.com'
p190
sg13
I1736055
sg14
g6
sg15
g6
sg16
g6
sg17
g6
sg18
I277464
sg19
g6
sg20
I1300000
sg21
I1794412
sg22
g6
sg23
g6
sg24
I1794412
sg25
I440698
sg26
I2424083
sg27
g6
ssS'CALGER CHRISTOPHER F'
p191
(dp192
g3
F0.07659738260200154
sg4
I2598
sg5
g6
sg7
I35818
sg8
I01
sg9
I-262500
sg10
F0.1736111111111111
sg11
S'christopher.calger@enron.com'
p193
sg13
I375304
sg14
g6
sg15
I2188
sg16
g6
sg17
I144
sg18
I486
sg19
g6
sg20
I1250000
sg21
I126027
sg22
I199
sg23
I25
sg24
I126027
sg25
I240189
sg26
I1639297
sg27
g6
ssS'KAMINSKI WINCENTY J'
p194
(dp195
g3
F0.008899500759713479
sg4
I4607
sg5
g6
sg7
I83585
sg8
I00
sg9
g6
sg10
F0.011901447661469933
sg11
S'vince.kaminski@enron.com'
p196
sg13
I323466
sg14
g6
sg15
I583
sg16
g6
sg17
I14368
sg18
I4669
sg19
g6
sg20
I400000
sg21
I976037
sg22
I41
sg23
I171
sg24
I126027
sg25
I275101
sg26
I1086821
sg27
I850010
ssS'COX DAVID'
p197
(dp198
g3
F0.0
sg4
I102
sg5
g6
sg7
I27861
sg8
I00
sg9
I-41250
sg10
F0.12121212121212122
sg11
S'chip.cox@enron.com'
p199
sg13
g6
sg14
g6
sg15
I71
sg16
g6
sg17
I33
sg18
I494
sg19
g6
sg20
I800000
sg21
I495633
sg22
I0
sg23
I4
sg24
I378082
sg25
I314288
sg26
I1101393
sg27
I117551
ssS'OVERDYKE JR JERE C'
p200
(dp201
g3
F0.0
sg4
g6
sg5
g6
sg7
I18834
sg8
I00
sg9
g6
sg10
F0.0
sg11
S'jere.overdyke@enron.com'
p202
sg13
I135836
sg14
g6
sg15
g6
sg16
g6
sg17
g6
sg18
I176
sg19
g6
sg20
g6
sg21
I7307594
sg22
g6
sg23
g6
sg24
I2041016
sg25
I94941
sg26
I249787
sg27
I5266578
ssS'STABLER FRANK'
p203
(dp204
g3
F0.0
sg4
g6
sg5
g6
sg7
I16514
sg8
I00
sg9
g6
sg10
F0.0
sg11
S'frank.stabler@enron.com'
p205
sg13
g6
sg14
g6
sg15
g6
sg16
g6
sg17
g6
sg18
I356071
sg19
g6
sg20
I500000
sg21
I511734
sg22
g6
sg23
g6
sg24
I511734
sg25
I239502
sg26
I1112087
sg27
g6
ssS'SKILLING JEFFREY K'
p206
(dp207
g3
F0.0242624758753791
sg4
I3627
sg5
g6
sg7
I29336
sg8
I01
sg9
g6
sg10
F0.2777777777777778
sg11
S'jeff.skilling@enron.com'
p208
sg13
I1920000
sg14
g6
sg15
I2042
sg16
g6
sg17
I108
sg18
I22122
sg19
g6
sg20
I5600000
sg21
I26093672
sg22
I88
sg23
I30
sg24
I6843672
sg25
I1111258
sg26
I8682716
sg27
I19250000
ssS'GRAY RODNEY'
p209
(dp210
g3
F0.0
sg4
g6
sg5
I93585
sg7
g6
sg8
I00
sg9
g6
sg10
F0.0
sg11
g6
sg13
I365625
sg14
g6
sg15
g6
sg16
g6
sg17
g6
sg18
I680833
sg19
g6
sg20
g6
sg21
g6
sg22
g6
sg23
g6
sg24
g6
sg25
I6615
sg26
I1146658
sg27
g6
ssS'UMANOFF ADAM S'
p211
(dp212
g3
F0.10810810810810811
sg4
I111
sg5
g6
sg7
I53122
sg8
I00
sg9
g6
sg10
F0.0
sg11
S'adam.umanoff@enron.com'
p213
sg13
g6
sg14
g6
sg15
I41
sg16
g6
sg17
I18
sg18
g6
sg19
g6
sg20
I788750
sg21
g6
sg22
I12
sg23
I0
sg24
g6
sg25
I288589
sg26
I1130461
sg27
g6
ssS'KEAN STEVEN J'
p214
(dp215
g3
F0.010976948408342482
sg4
I12754
sg5
g6
sg7
I41953
sg8
I00
sg9
g6
sg10
F0.05725699067909454
sg11
S'steven.kean@enron.com'
p216
sg13
I300000
sg14
g6
sg15
I3639
sg16
g6
sg17
I6759
sg18
I1231
sg19
g6
sg20
I1000000
sg21
I6153642
sg22
I140
sg23
I387
sg24
I4131594
sg25
I404338
sg26
I1747522
sg27
I2022048
ssS'WASAFF GEORGE'
p217
(dp218
g3
F0.055
sg4
I400
sg5
I831299
sg7
g6
sg8
I00
sg9
I-583325
sg10
F0.23333333333333334
sg11
S'george.wasaff@enron.com'
p219
sg13
I200000
sg14
g6
sg15
I337
sg16
g6
sg17
I30
sg18
I1425
sg19
g6
sg20
I325000
sg21
I2056427
sg22
I22
sg23
I7
sg24
I388167
sg25
I259996
sg26
I1034395
sg27
I1668260
ssS'WHITE JR THOMAS E'
p220
(dp221
g3
F0.0
sg4
g6
sg5
g6
sg7
I81353
sg8
I00
sg9
g6
sg10
F0.0
sg11
S'thomas.white@enron.com'
p222
sg13
g6
sg14
g6
sg15
g6
sg16
g6
sg17
g6
sg18
I1085463
sg19
g6
sg20
I450000
sg21
I15144123
sg22
g6
sg23
g6
sg24
I13847074
sg25
I317543
sg26
I1934359
sg27
I1297049
ssS'ALLEN PHILLIP K'
p223
(dp224
g3
F0.016195727084769126
sg4
I2902
sg5
I2869717
sg7
I13868
sg8
I00
sg9
I-3081055
sg10
F0.029612756264236904
sg11
S'phillip.allen@enron.com'
p225
sg13
I304805
sg14
I-126027
sg15
I1407
sg16
g6
sg17
I2195
sg18
I152
sg19
g6
sg20
I4175000
sg21
I1729541
sg22
I47
sg23
I65
sg24
I126027
sg25
I201955
sg26
I4484442
sg27
I1729541
ssS'SHARP VICTORIA T'
p226
(dp227
g3
F0.007653061224489796
sg4
I3136
sg5
I187469
sg7
I116337
sg8
I00
sg9
g6
sg10
F0.04411764705882353
sg11
S'vicki.sharp@enron.com'
p228
sg13
I422158
sg14
g6
sg15
I2477
sg16
g6
sg17
I136
sg18
I2401
sg19
g6
sg20
I600000
sg21
I494136
sg22
I24
sg23
I6
sg24
I213063
sg25
I248146
sg26
I1576511
sg27
I281073
ssS'MCCLELLAN GEORGE'
p229
(dp230
g3
F0.02981651376146789
sg4
I1744
sg5
g6
sg7
I228763
sg8
I00
sg9
I-125000
sg10
F0.0
sg11
S'george.mcclellan@enron.com'
p231
sg13
g6
sg14
g6
sg15
I1469
sg16
g6
sg17
I49
sg18
I51587
sg19
g6
sg20
I900000
sg21
I947861
sg22
I52
sg23
I0
sg24
I441096
sg25
I263413
sg26
I1318763
sg27
I506765
ssS'CARTER REBECCA C'
p232
(dp233
g3
F0.09294871794871795
sg4
I312
sg5
g6
sg7
g6
sg8
I00
sg9
I-159792
sg10
F0.4666666666666667
sg11
S'rebecca.carter@enron.com'
p234
sg13
I75000
sg14
I-307301
sg15
I196
sg16
g6
sg17
I15
sg18
I540
sg19
g6
sg20
I300000
sg21
g6
sg22
I29
sg23
I7
sg24
I307301
sg25
I261809
sg26
I477557
sg27
g6
ssS'REYNOLDS LAWRENCE'
p235
(dp236
g3
F0.0
sg4
g6
sg5
I51365
sg7
I8409
sg8
I00
sg9
I-200000
sg10
F0.0
sg11
g6
sg13
I156250
sg14
I-140264
sg15
g6
sg16
g6
sg17
g6
sg18
I202052
sg19
g6
sg20
I100000
sg21
I4221891
sg22
g6
sg23
g6
sg24
I201483
sg25
I76399
sg26
I394475
sg27
I4160672
ssS'DIMICHELE RICHARD G'
p237
(dp238
g3
F0.0
sg4
g6
sg5
g6
sg7
I35812
sg8
I00
sg9
g6
sg10
F0.0
sg11
S'richard.dimichele@enron.com'
p239
sg13
I694862
sg14
g6
sg15
g6
sg16
g6
sg17
g6
sg18
I374689
sg19
g6
sg20
I1000000
sg21
I8317782
sg22
g6
sg23
g6
sg24
I126027
sg25
I262788
sg26
I2368151
sg27
I8191755
ssS'BUCHANAN HAROLD G'
p240
(dp241
g3
F0.0
sg4
I1088
sg5
g6
sg7
I600
sg8
I00
sg9
g6
sg10
F0.0
sg11
S'john.buchanan@enron.com'
p242
sg13
I304805
sg14
g6
sg15
I23
sg16
g6
sg17
I125
sg18
I1215
sg19
g6
sg20
I500000
sg21
I1014505
sg22
I0
sg23
I0
sg24
I189041
sg25
I248017
sg26
I1054637
sg27
I825464
ssS'MURRAY JULIA H'
p243
(dp244
g3
F0.005018248175182482
sg4
I2192
sg5
g6
sg7
I57580
sg8
I00
sg9
g6
sg10
F0.044444444444444446
sg11
S'julia.murray@enron.com'
p245
sg13
I125000
sg14
g6
sg15
I395
sg16
g6
sg17
I45
sg18
I330
sg19
g6
sg20
I400000
sg21
I597461
sg22
I11
sg23
I2
sg24
I196983
sg25
I229284
sg26
I812194
sg27
I400478
ssS'GARLAND C KEVIN'
p246
(dp247
g3
F0.04784688995215311
sg4
I209
sg5
g6
sg7
I48405
sg8
I00
sg9
g6
sg10
F0.6136363636363636
sg11
S'kevin.garland@enron.com'
p248
sg13
I375304
sg14
g6
sg15
I178
sg16
g6
sg17
I44
sg18
I60814
sg19
g6
sg20
I850000
sg21
I896153
sg22
I10
sg23
I27
sg24
I259907
sg25
I231946
sg26
I1566469
sg27
I636246
ssS'DODSON KEITH'
p249
(dp250
g3
F0.056818181818181816
sg4
I176
sg5
g6
sg7
I28164
sg8
I00
sg9
g6
sg10
F0.21428571428571427
sg11
S'keith.dodson@enron.com'
p251
sg13
g6
sg14
g6
sg15
I114
sg16
g6
sg17
I14
sg18
I774
sg19
g6
sg20
I70000
sg21
g6
sg22
I10
sg23
I3
sg24
g6
sg25
I221003
sg26
I319941
sg27
g6
ssS'YEAGER F SCOTT'
p252
(dp253
g3
F0.0
sg4
g6
sg5
g6
sg7
I53947
sg8
I01
sg9
g6
sg10
F0.0
sg11
S'scott.yeager@enron.com'
p254
sg13
g6
sg14
g6
sg15
g6
sg16
g6
sg17
g6
sg18
I147950
sg19
g6
sg20
g6
sg21
I11884758
sg22
g6
sg23
g6
sg24
I3576206
sg25
I158403
sg26
I360300
sg27
I8308552
ssS'DIETRICH JANET R'
p255
(dp256
g3
F0.11858475894245724
sg4
I2572
sg5
g6
sg7
I3475
sg8
I00
sg9
g6
sg10
F0.2222222222222222
sg11
S'janet.dietrich@enron.com'
p257
sg13
I556416
sg14
g6
sg15
I1902
sg16
g6
sg17
I63
sg18
I473
sg19
g6
sg20
I600000
sg21
I1865087
sg22
I305
sg23
I14
sg24
I315068
sg25
I250100
sg26
I1410464
sg27
I1550019
ssS'DERRICK JR. JAMES V'
p258
(dp259
g3
F0.029344337459880788
sg4
I2181
sg5
g6
sg7
I51124
sg8
I00
sg9
I-1284000
sg10
F0.022002200220022004
sg11
S'james.derrick@enron.com'
p260
sg13
I484000
sg14
I-1787380
sg15
I1401
sg16
g6
sg17
I909
sg18
I7482
sg19
g6
sg20
I800000
sg21
I8831913
sg22
I64
sg23
I20
sg24
I1787380
sg25
I492375
sg26
I550981
sg27
I8831913
ssS'FREVERT MARK A'
p261
(dp262
g3
F0.07389312977099237
sg4
I3275
sg5
I6426990
sg7
I86987
sg8
I00
sg9
I-3367011
sg10
F0.2857142857142857
sg11
S'mark.frevert@enron.com'
p263
sg13
I1617011
sg14
g6
sg15
I2979
sg16
I2000000
sg17
I21
sg18
I7427621
sg19
g6
sg20
I2000000
sg21
I14622185
sg22
I242
sg23
I6
sg24
I4188667
sg25
I1060932
sg26
I17252530
sg27
I10433518
ssS'PAI LOU L'
p264
(dp265
g3
F0.0
sg4
g6
sg5
g6
sg7
I32047
sg8
I00
sg9
g6
sg10
F0.0
sg11
S'lou.pai@enron.com'
p266
sg13
g6
sg14
g6
sg15
g6
sg16
g6
sg17
g6
sg18
I1829457
sg19
g6
sg20
I1000000
sg21
I23817930
sg22
g6
sg23
g6
sg24
I8453763
sg25
I261879
sg26
I3123383
sg27
I15364167
ssS'BAY FRANKLIN R'
p267
(dp268
g3
F0.0
sg4
g6
sg5
I260455
sg7
I129142
sg8
I00
sg9
I-201641
sg10
F0.0
sg11
S'frank.bay@enron.com'
p269
sg13
g6
sg14
I-82782
sg15
g6
sg16
g6
sg17
g6
sg18
I69
sg19
g6
sg20
I400000
sg21
I63014
sg22
g6
sg23
g6
sg24
I145796
sg25
I239671
sg26
I827696
sg27
g6
ssS'FALLON JAMES B'
p270
(dp271
g3
F0.023931623931623933
sg4
I1755
sg5
g6
sg7
I95924
sg8
I00
sg9
g6
sg10
F0.49333333333333335
sg11
S'jim.fallon@enron.com'
p272
sg13
I374347
sg14
g6
sg15
I1604
sg16
g6
sg17
I75
sg18
I401481
sg19
g6
sg20
I2500000
sg21
I2332399
sg22
I42
sg23
I37
sg24
I1392142
sg25
I304588
sg26
I3676340
sg27
I940257
ssS'KOENIG MARK E'
p273
(dp274
g3
F0.02232518955349621
sg4
I2374
sg5
g6
sg7
I127017
sg8
I01
sg9
g6
sg10
F0.2459016393442623
sg11
S'mark.koenig@enron.com'
p275
sg13
I300000
sg14
g6
sg15
I2271
sg16
g6
sg17
I61
sg18
I150458
sg19
g6
sg20
I700000
sg21
I1920055
sg22
I53
sg23
I15
sg24
I1248318
sg25
I309946
sg26
I1587421
sg27
I671737
ssS'IZZO LAWRENCE L'
p276
(dp277
g3
F0.056451612903225805
sg4
I496
sg5
g6
sg7
I28093
sg8
I00
sg9
g6
sg10
F0.2631578947368421
sg11
S'larry.izzo@enron.com'
p278
sg13
I312500
sg14
g6
sg15
I437
sg16
g6
sg17
I19
sg18
I1553729
sg19
g6
sg20
g6
sg21
I5819980
sg22
I28
sg23
I5
sg24
I3654808
sg25
I85274
sg26
I1979596
sg27
I2165172
ssS'TILNEY ELIZABETH A'
p279
(dp280
g3
F0.021739130434782608
sg4
I460
sg5
g6
sg7
g6
sg8
I00
sg9
I-575000
sg10
F0.5789473684210527
sg11
S'elizabeth.tilney@enron.com'
p281
sg13
I275000
sg14
g6
sg15
I379
sg16
g6
sg17
I19
sg18
I152055
sg19
g6
sg20
I300000
sg21
I1168042
sg22
I10
sg23
I11
sg24
I576792
sg25
I247338
sg26
I399393
sg27
I591250
ssS'MARTIN AMANDA K'
p282
(dp283
g3
F0.005256241787122208
sg4
I1522
sg5
I85430
sg7
I8211
sg8
I00
sg9
g6
sg10
F0.0
sg11
S'a..martin@enron.com'
p284
sg13
I5145434
sg14
g6
sg15
I477
sg16
g6
sg17
I230
sg18
I2818454
sg19
g6
sg20
g6
sg21
I2070306
sg22
I8
sg23
I0
sg24
g6
sg25
I349487
sg26
I8407016
sg27
I2070306
ssS'BUY RICHARD B'
p285
(dp286
g3
F0.04428044280442804
sg4
I3523
sg5
I649584
sg7
g6
sg8
I00
sg9
I-694862
sg10
F0.06742640075973409
sg11
S'rick.buy@enron.com'
p287
sg13
I769862
sg14
g6
sg15
I2333
sg16
g6
sg17
I1053
sg18
I400572
sg19
g6
sg20
I900000
sg21
I3444470
sg22
I156
sg23
I71
sg24
I901657
sg25
I330546
sg26
I2355702
sg27
I2542813
ssS'CAUSEY RICHARD A'
p288
(dp289
g3
F0.0306553911205074
sg4
I1892
sg5
g6
sg7
I30674
sg8
I01
sg9
I-235000
sg10
F0.24489795918367346
sg11
S'richard.causey@enron.com'
p290
sg13
I350000
sg14
g6
sg15
I1585
sg16
g6
sg17
I49
sg18
I307895
sg19
g6
sg20
I1000000
sg21
I2502063
sg22
I58
sg23
I12
sg24
I2502063
sg25
I415189
sg26
I1868758
sg27
g6
ssS'TAYLOR MITCHELL S'
p291
(dp292
g3
F0.0
sg4
I533
sg5
I227449
sg7
g6
sg8
I00
sg9
g6
sg10
F0.0
sg11
S'mitchell.taylor@enron.com'
p293
sg13
g6
sg14
g6
sg15
I300
sg16
g6
sg17
I29
sg18
g6
sg19
g6
sg20
I600000
sg21
I3745048
sg22
I0
sg23
I0
sg24
I563798
sg25
I265214
sg26
I1092663
sg27
I3181250
ssS'DONAHUE JR JEFFREY M'
p294
(dp295
g3
F0.21734104046242775
sg4
I865
sg5
g6
sg7
I96268
sg8
I00
sg9
I-300000
sg10
F0.5
sg11
S'jeff.donahue@enron.com'
p296
sg13
g6
sg14
g6
sg15
I772
sg16
g6
sg17
I22
sg18
I891
sg19
g6
sg20
I800000
sg21
I1080988
sg22
I188
sg23
I11
sg24
I315068
sg25
I278601
sg26
I875760
sg27
I765920
ssS'GLISAN JR BEN F'
p297
(dp298
g3
F0.05956471935853379
sg4
I873
sg5
g6
sg7
I125978
sg8
I01
sg9
g6
sg10
F0.375
sg11
S'ben.glisan@enron.com'
p299
sg13
I71023
sg14
g6
sg15
I874
sg16
g6
sg17
I16
sg18
I200308
sg19
g6
sg20
I600000
sg21
I778546
sg22
I52
sg23
I6
sg24
I393818
sg25
I274975
sg26
I1272284
sg27
I384728
ss.